target datalayout = "e-m:e-p270:32:32-p271:32:32-p272:64:64-i64:64-i128:128-f80:128-n8:16:32:64-S128"
target triple = "x86_64-pc-linux-gnu"

%struct.LockRelId = type { i32, i32 }
%struct.LOCKTAG = type { i32, i32, i32, i16, i8, i8 }

; Function Attrs: nounwind uwtable
define dso_local void @UnlockRelationIdForSession(ptr noundef %0, i32 noundef %1) #0 {
  %3 = alloca ptr, align 8
  %4 = alloca i32, align 4
  %5 = alloca %struct.LOCKTAG, align 4
  store ptr %0, ptr %3, align 8
  store i32 %1, ptr %4, align 4
  call void @llvm.lifetime.start.p0(i64 16, ptr %5) #6
  %6 = load ptr, ptr %3, align 8
  %7 = getelementptr inbounds nuw %struct.LockRelId, ptr %6, i32 0, i32 1
  %8 = load i32, ptr %7, align 4
  %9 = getelementptr inbounds nuw %struct.LOCKTAG, ptr %5, i32 0, i32 0
  store i32 %8, ptr %9, align 4
  %10 = load ptr, ptr %3, align 8
  %11 = getelementptr inbounds nuw %struct.LockRelId, ptr %10, i32 0, i32 0
  %12 = load i32, ptr %11, align 4
  %13 = getelementptr inbounds nuw %struct.LOCKTAG, ptr %5, i32 0, i32 1
  store i32 %12, ptr %13, align 4
  %14 = getelementptr inbounds nuw %struct.LOCKTAG, ptr %5, i32 0, i32 2
  store i32 0, ptr %14, align 4
  %15 = getelementptr inbounds nuw %struct.LOCKTAG, ptr %5, i32 0, i32 3
  store i16 0, ptr %15, align 4
  %16 = getelementptr inbounds nuw %struct.LOCKTAG, ptr %5, i32 0, i32 4
  store i8 0, ptr %16, align 2
  %17 = getelementptr inbounds nuw %struct.LOCKTAG, ptr %5, i32 0, i32 5
  store i8 1, ptr %17, align 1
  %18 = load i32, ptr %4, align 4
  %19 = call zeroext i1 @LockRelease(ptr noundef %5, i32 noundef %18, i1 noundef zeroext true)
  call void @llvm.lifetime.end.p0(i64 16, ptr %5) #6
  ret void
}